target datalayout = "e-m:e-p270:32:32-p271:32:32-p272:64:64-i64:64-i128:128-f80:128-n8:16:32:64-S128"
target triple = "x86_64-pc-linux-gnu"

%struct.sqlite3_intck = type { ptr, ptr, ptr, ptr, ptr, i32, ptr, i32, i32, ptr, ptr }

; Function Attrs: nounwind uwtable
define i32 @sqlite3_intck_error(ptr noundef %0, ptr noundef %1) #0 {
  %3 = alloca ptr, align 8
  %4 = alloca ptr, align 8
  store ptr %0, ptr %3, align 8, !tbaa !216
  store ptr %1, ptr %4, align 8, !tbaa !21
  %5 = load ptr, ptr %4, align 8, !tbaa !21
  %6 = icmp ne ptr %5, null
  br i1 %6, label %7, label %12

7:                                                ; preds = %2
  %8 = load ptr, ptr %3, align 8, !tbaa !216
  %9 = getelementptr inbounds nuw %struct.sqlite3_intck, ptr %8, i32 0, i32 9
  %10 = load ptr, ptr %9, align 8, !tbaa !225
  %11 = load ptr, ptr %4, align 8, !tbaa !21
  store ptr %10, ptr %11, align 8, !tbaa !36
  br label %12

12:                                               ; preds = %7, %2
  %13 = load ptr, ptr %3, align 8, !tbaa !216
  %14 = getelementptr inbounds nuw %struct.sqlite3_intck, ptr %13, i32 0, i32 8
  %15 = load i32, ptr %14, align 4, !tbaa !227
  %16 = icmp eq i32 %15, 101
  br i1 %16, label %17, label %18

17:                                               ; preds = %12
  br label %22

18:                                               ; preds = %12
  %19 = load ptr, ptr %3, align 8, !tbaa !216
  %20 = getelementptr inbounds nuw %struct.sqlite3_intck, ptr %19, i32 0, i32 8
  %21 = load i32, ptr %20, align 4, !tbaa !227
  br label %22

22:                                               ; preds = %18, %17
  %23 = phi i32 [ 0, %17 ], [ %21, %18 ]
  ret i32 %23
}